; Function Attrs: nounwind uwtable
define void @Wlc_SetNtk(ptr noundef captures(none) %0, ptr noundef %1) local_unnamed_addr #0 {
  %3 = getelementptr i8, ptr %0, i64 504
  %.val.i = load ptr, ptr %3, align 8, !tbaa !27
  %.not.i.i = icmp eq ptr %.val.i, null
  br i1 %.not.i.i, label %Wlc_AbcUpdateNtk.exit, label %4

4:                                                ; preds = %2
  tail call void @Wlc_NtkFree(ptr noundef nonnull %.val.i) #17
  br label %Wlc_AbcUpdateNtk.exit

Wlc_AbcUpdateNtk.exit:                            ; preds = %2, %4
  store ptr %1, ptr %3, align 8, !tbaa !27
  ret void
}